target datalayout = "e-m:e-p270:32:32-p271:32:32-p272:64:64-i64:64-i128:128-f80:128-n8:16:32:64-S128"
target triple = "x86_64-pc-linux-gnu"

%struct.pg_hmac_ctx = type { ptr, i32, i32, ptr, i32, i32, [128 x i8], [128 x i8] }

; Function Attrs: nounwind uwtable
define dso_local i32 @pg_hmac_final(ptr noundef %0, ptr noundef %1, i64 noundef %2) #0 {
  %4 = alloca i32, align 4
  %5 = alloca ptr, align 8
  %6 = alloca ptr, align 8
  %7 = alloca i64, align 8
  %8 = alloca ptr, align 8
  %9 = alloca i32, align 4
  store ptr %0, ptr %5, align 8
  store ptr %1, ptr %6, align 8
  store i64 %2, ptr %7, align 8
  call void @llvm.lifetime.start.p0(i64 8, ptr %8) #5
  %10 = load ptr, ptr %5, align 8
  %11 = icmp eq ptr %10, null
  br i1 %11, label %12, label %13

12:                                               ; preds = %3
  store i32 -1, ptr %4, align 4
  store i32 1, ptr %9, align 4
  br label %100

13:                                               ; preds = %3
  %14 = load ptr, ptr %5, align 8
  %15 = getelementptr inbounds nuw %struct.pg_hmac_ctx, ptr %14, i32 0, i32 5
  %16 = load i32, ptr %15, align 4
  %17 = sext i32 %16 to i64
  %18 = call ptr @palloc(i64 noundef %17)
  store ptr %18, ptr %8, align 8
  %19 = load ptr, ptr %8, align 8
  %20 = icmp eq ptr %19, null
  br i1 %20, label %21, label %24

21:                                               ; preds = %13
  %22 = load ptr, ptr %5, align 8
  %23 = getelementptr inbounds nuw %struct.pg_hmac_ctx, ptr %22, i32 0, i32 2
  store i32 1, ptr %23, align 4
  store i32 -1, ptr %4, align 4
  store i32 1, ptr %9, align 4
  br label %100

24:                                               ; preds = %13
  %25 = load ptr, ptr %8, align 8
  %26 = load ptr, ptr %5, align 8
  %27 = getelementptr inbounds nuw %struct.pg_hmac_ctx, ptr %26, i32 0, i32 5
  %28 = load i32, ptr %27, align 4
  %29 = sext i32 %28 to i64
  call void @llvm.memset.p0.i64(ptr align 1 %25, i8 0, i64 %29, i1 false)
  %30 = load ptr, ptr %5, align 8
  %31 = getelementptr inbounds nuw %struct.pg_hmac_ctx, ptr %30, i32 0, i32 0
  %32 = load ptr, ptr %31, align 8
  %33 = load ptr, ptr %8, align 8
  %34 = load ptr, ptr %5, align 8
  %35 = getelementptr inbounds nuw %struct.pg_hmac_ctx, ptr %34, i32 0, i32 5
  %36 = load i32, ptr %35, align 4
  %37 = sext i32 %36 to i64
  %38 = call i32 @pg_cryptohash_final(ptr noundef %32, ptr noundef %33, i64 noundef %37)
  %39 = icmp slt i32 %38, 0
  br i1 %39, label %40, label %50

40:                                               ; preds = %24
  %41 = load ptr, ptr %5, align 8
  %42 = getelementptr inbounds nuw %struct.pg_hmac_ctx, ptr %41, i32 0, i32 2
  store i32 2, ptr %42, align 4
  %43 = load ptr, ptr %5, align 8
  %44 = getelementptr inbounds nuw %struct.pg_hmac_ctx, ptr %43, i32 0, i32 0
  %45 = load ptr, ptr %44, align 8
  %46 = call ptr @pg_cryptohash_error(ptr noundef %45)
  %47 = load ptr, ptr %5, align 8
  %48 = getelementptr inbounds nuw %struct.pg_hmac_ctx, ptr %47, i32 0, i32 3
  store ptr %46, ptr %48, align 8
  %49 = load ptr, ptr %8, align 8
  call void @pfree(ptr noundef %49)
  store i32 -1, ptr %4, align 4
  store i32 1, ptr %9, align 4
  br label %100

50:                                               ; preds = %24
  %51 = load ptr, ptr %5, align 8
  %52 = getelementptr inbounds nuw %struct.pg_hmac_ctx, ptr %51, i32 0, i32 0
  %53 = load ptr, ptr %52, align 8
  %54 = call i32 @pg_cryptohash_init(ptr noundef %53)
  %55 = icmp slt i32 %54, 0
  br i1 %55, label %88, label %56

56:                                               ; preds = %50
  %57 = load ptr, ptr %5, align 8
  %58 = getelementptr inbounds nuw %struct.pg_hmac_ctx, ptr %57, i32 0, i32 0
  %59 = load ptr, ptr %58, align 8
  %60 = load ptr, ptr %5, align 8
  %61 = getelementptr inbounds nuw %struct.pg_hmac_ctx, ptr %60, i32 0, i32 7
  %62 = getelementptr inbounds [128 x i8], ptr %61, i64 0, i64 0
  %63 = load ptr, ptr %5, align 8
  %64 = getelementptr inbounds nuw %struct.pg_hmac_ctx, ptr %63, i32 0, i32 4
  %65 = load i32, ptr %64, align 8
  %66 = sext i32 %65 to i64
  %67 = call i32 @pg_cryptohash_update(ptr noundef %59, ptr noundef %62, i64 noundef %66)
  %68 = icmp slt i32 %67, 0
  br i1 %68, label %88, label %69

69:                                               ; preds = %56
  %70 = load ptr, ptr %5, align 8
  %71 = getelementptr inbounds nuw %struct.pg_hmac_ctx, ptr %70, i32 0, i32 0
  %72 = load ptr, ptr %71, align 8
  %73 = load ptr, ptr %8, align 8
  %74 = load ptr, ptr %5, align 8
  %75 = getelementptr inbounds nuw %struct.pg_hmac_ctx, ptr %74, i32 0, i32 5
  %76 = load i32, ptr %75, align 4
  %77 = sext i32 %76 to i64
  %78 = call i32 @pg_cryptohash_update(ptr noundef %72, ptr noundef %73, i64 noundef %77)
  %79 = icmp slt i32 %78, 0
  br i1 %79, label %88, label %80

80:                                               ; preds = %69
  %81 = load ptr, ptr %5, align 8
  %82 = getelementptr inbounds nuw %struct.pg_hmac_ctx, ptr %81, i32 0, i32 0
  %83 = load ptr, ptr %82, align 8
  %84 = load ptr, ptr %6, align 8
  %85 = load i64, ptr %7, align 8
  %86 = call i32 @pg_cryptohash_final(ptr noundef %83, ptr noundef %84, i64 noundef %85)
  %87 = icmp slt i32 %86, 0
  br i1 %87, label %88, label %98

88:                                               ; preds = %80, %69, %56, %50
  %89 = load ptr, ptr %5, align 8
  %90 = getelementptr inbounds nuw %struct.pg_hmac_ctx, ptr %89, i32 0, i32 2
  store i32 2, ptr %90, align 4
  %91 = load ptr, ptr %5, align 8
  %92 = getelementptr inbounds nuw %struct.pg_hmac_ctx, ptr %91, i32 0, i32 0
  %93 = load ptr, ptr %92, align 8
  %94 = call ptr @pg_cryptohash_error(ptr noundef %93)
  %95 = load ptr, ptr %5, align 8
  %96 = getelementptr inbounds nuw %struct.pg_hmac_ctx, ptr %95, i32 0, i32 3
  store ptr %94, ptr %96, align 8
  %97 = load ptr, ptr %8, align 8
  call void @pfree(ptr noundef %97)
  store i32 -1, ptr %4, align 4
  store i32 1, ptr %9, align 4
  br label %100

98:                                               ; preds = %80
  %99 = load ptr, ptr %8, align 8
  call void @pfree(ptr noundef %99)
  store i32 0, ptr %4, align 4
  store i32 1, ptr %9, align 4
  br label %100

100:                                              ; preds = %98, %88, %40, %21, %12
  call void @llvm.lifetime.end.p0(i64 8, ptr %8) #5
  %101 = load i32, ptr %4, align 4
  ret i32 %101
}