; Function Attrs: nounwind uwtable
define dso_local range(i32 -1, 1) i32 @pg_hmac_final(ptr noundef %0, ptr noundef %1, i64 noundef %2) local_unnamed_addr #0 {
  %4 = icmp eq ptr %0, null
  br i1 %4, label %54, label %5

5:                                                ; preds = %3
  %6 = getelementptr inbounds nuw i8, ptr %0, i64 28
  %7 = load i32, ptr %6, align 4
  %8 = sext i32 %7 to i64
  %9 = tail call ptr @palloc(i64 noundef %8) #5
  %10 = icmp eq ptr %9, null
  br i1 %10, label %11, label %13

11:                                               ; preds = %5
  %12 = getelementptr inbounds nuw i8, ptr %0, i64 12
  store i32 1, ptr %12, align 4
  br label %54

13:                                               ; preds = %5
  %14 = load i32, ptr %6, align 4
  %15 = sext i32 %14 to i64
  tail call void @llvm.memset.p0.i64(ptr nonnull align 1 %9, i8 0, i64 %15, i1 false)
  %16 = load ptr, ptr %0, align 8
  %17 = load i32, ptr %6, align 4
  %18 = sext i32 %17 to i64
  %19 = tail call i32 @pg_cryptohash_final(ptr noundef %16, ptr noundef nonnull %9, i64 noundef %18) #5
  %20 = icmp slt i32 %19, 0
  br i1 %20, label %21, label %26

21:                                               ; preds = %13
  %22 = getelementptr inbounds nuw i8, ptr %0, i64 12
  store i32 2, ptr %22, align 4
  %23 = load ptr, ptr %0, align 8
  %24 = tail call ptr @pg_cryptohash_error(ptr noundef %23) #5
  %25 = getelementptr inbounds nuw i8, ptr %0, i64 16
  store ptr %24, ptr %25, align 8
  tail call void @pfree(ptr noundef nonnull %9) #5
  br label %54

26:                                               ; preds = %13
  %27 = load ptr, ptr %0, align 8
  %28 = tail call i32 @pg_cryptohash_init(ptr noundef %27) #5
  %29 = icmp slt i32 %28, 0
  br i1 %29, label %48, label %30

30:                                               ; preds = %26
  %31 = load ptr, ptr %0, align 8
  %32 = getelementptr inbounds nuw i8, ptr %0, i64 160
  %33 = getelementptr inbounds nuw i8, ptr %0, i64 24
  %34 = load i32, ptr %33, align 8
  %35 = sext i32 %34 to i64
  %36 = tail call i32 @pg_cryptohash_update(ptr noundef %31, ptr noundef nonnull %32, i64 noundef %35) #5
  %37 = icmp slt i32 %36, 0
  br i1 %37, label %48, label %38

38:                                               ; preds = %30
  %39 = load ptr, ptr %0, align 8
  %40 = load i32, ptr %6, align 4
  %41 = sext i32 %40 to i64
  %42 = tail call i32 @pg_cryptohash_update(ptr noundef %39, ptr noundef nonnull %9, i64 noundef %41) #5
  %43 = icmp slt i32 %42, 0
  br i1 %43, label %48, label %44

44:                                               ; preds = %38
  %45 = load ptr, ptr %0, align 8
  %46 = tail call i32 @pg_cryptohash_final(ptr noundef %45, ptr noundef %1, i64 noundef %2) #5
  %47 = icmp slt i32 %46, 0
  br i1 %47, label %48, label %53

48:                                               ; preds = %44, %38, %30, %26
  %49 = getelementptr inbounds nuw i8, ptr %0, i64 12
  store i32 2, ptr %49, align 4
  %50 = load ptr, ptr %0, align 8
  %51 = tail call ptr @pg_cryptohash_error(ptr noundef %50) #5
  %52 = getelementptr inbounds nuw i8, ptr %0, i64 16
  store ptr %51, ptr %52, align 8
  tail call void @pfree(ptr noundef nonnull %9) #5
  br label %54

53:                                               ; preds = %44
  tail call void @pfree(ptr noundef nonnull %9) #5
  br label %54

54:                                               ; preds = %3, %53, %48, %21, %11
  %.0 = phi i32 [ -1, %11 ], [ -1, %21 ], [ -1, %48 ], [ 0, %53 ], [ -1, %3 ]
  ret i32 %.0
}